target datalayout = "e-m:e-p270:32:32-p271:32:32-p272:64:64-i64:64-i128:128-f80:128-n8:16:32:64-S128"
target triple = "x86_64-pc-linux-gnu"

%struct.PutBitContext = type { i32, i32, ptr, ptr, ptr }

@.str.43 = private unnamed_addr constant [43 x i8] c"Internal error, put_bits buffer too small\0A\00", align 1

; Function Attrs: alwaysinline nounwind willreturn memory(none) uwtable
define internal i32 @av_bswap32(i32 noundef %0) #4 {
  %2 = alloca i32, align 4
  store i32 %0, ptr %2, align 4, !tbaa !32
  %3 = load i32, ptr %2, align 4, !tbaa !32
  %4 = shl i32 %3, 8
  %5 = and i32 %4, 65280
  %6 = load i32, ptr %2, align 4, !tbaa !32
  %7 = lshr i32 %6, 8
  %8 = and i32 %7, 255
  %9 = or i32 %5, %8
  %10 = shl i32 %9, 16
  %11 = load i32, ptr %2, align 4, !tbaa !32
  %12 = lshr i32 %11, 16
  %13 = shl i32 %12, 8
  %14 = and i32 %13, 65280
  %15 = load i32, ptr %2, align 4, !tbaa !32
  %16 = lshr i32 %15, 16
  %17 = lshr i32 %16, 8
  %18 = and i32 %17, 255
  %19 = or i32 %14, %18
  %20 = or i32 %10, %19
  ret i32 %20
}

; Function Attrs: inlinehint nounwind uwtable
define internal void @put_bits_no_assert(ptr noundef %0, i32 noundef %1, i32 noundef %2) #8 {
  %4 = alloca ptr, align 8
  %5 = alloca i32, align 4
  %6 = alloca i32, align 4
  %7 = alloca i32, align 4
  %8 = alloca i32, align 4
  store ptr %0, ptr %4, align 8, !tbaa !138
  store i32 %1, ptr %5, align 4, !tbaa !32
  store i32 %2, ptr %6, align 4, !tbaa !32
  call void @llvm.lifetime.start.p0(i64 4, ptr %7) #11
  call void @llvm.lifetime.start.p0(i64 4, ptr %8) #11
  %9 = load ptr, ptr %4, align 8, !tbaa !138
  %10 = getelementptr inbounds nuw %struct.PutBitContext, ptr %9, i32 0, i32 0
  %11 = load i32, ptr %10, align 8, !tbaa !145
  store i32 %11, ptr %7, align 4, !tbaa !32
  %12 = load ptr, ptr %4, align 8, !tbaa !138
  %13 = getelementptr inbounds nuw %struct.PutBitContext, ptr %12, i32 0, i32 1
  %14 = load i32, ptr %13, align 4, !tbaa !144
  store i32 %14, ptr %8, align 4, !tbaa !32
  %15 = load i32, ptr %5, align 4, !tbaa !32
  %16 = load i32, ptr %8, align 4, !tbaa !32
  %17 = icmp slt i32 %15, %16
  br i1 %17, label %18, label %27

18:                                               ; preds = %3
  %19 = load i32, ptr %7, align 4, !tbaa !32
  %20 = load i32, ptr %5, align 4, !tbaa !32
  %21 = shl i32 %19, %20
  %22 = load i32, ptr %6, align 4, !tbaa !32
  %23 = or i32 %21, %22
  store i32 %23, ptr %7, align 4, !tbaa !32
  %24 = load i32, ptr %5, align 4, !tbaa !32
  %25 = load i32, ptr %8, align 4, !tbaa !32
  %26 = sub nsw i32 %25, %24
  store i32 %26, ptr %8, align 4, !tbaa !32
  br label %65

27:                                               ; preds = %3
  %28 = load i32, ptr %8, align 4, !tbaa !32
  %29 = load i32, ptr %7, align 4, !tbaa !32
  %30 = shl i32 %29, %28
  store i32 %30, ptr %7, align 4, !tbaa !32
  %31 = load i32, ptr %6, align 4, !tbaa !32
  %32 = load i32, ptr %5, align 4, !tbaa !32
  %33 = load i32, ptr %8, align 4, !tbaa !32
  %34 = sub nsw i32 %32, %33
  %35 = lshr i32 %31, %34
  %36 = load i32, ptr %7, align 4, !tbaa !32
  %37 = or i32 %36, %35
  store i32 %37, ptr %7, align 4, !tbaa !32
  %38 = load ptr, ptr %4, align 8, !tbaa !138
  %39 = getelementptr inbounds nuw %struct.PutBitContext, ptr %38, i32 0, i32 4
  %40 = load ptr, ptr %39, align 8, !tbaa !142
  %41 = load ptr, ptr %4, align 8, !tbaa !138
  %42 = getelementptr inbounds nuw %struct.PutBitContext, ptr %41, i32 0, i32 3
  %43 = load ptr, ptr %42, align 8, !tbaa !143
  %44 = ptrtoint ptr %40 to i64
  %45 = ptrtoint ptr %43 to i64
  %46 = sub i64 %44, %45
  %47 = icmp uge i64 %46, 4
  br i1 %47, label %48, label %58

48:                                               ; preds = %27
  %49 = load i32, ptr %7, align 4, !tbaa !32
  %50 = call i32 @av_bswap32(i32 noundef %49) #12
  %51 = load ptr, ptr %4, align 8, !tbaa !138
  %52 = getelementptr inbounds nuw %struct.PutBitContext, ptr %51, i32 0, i32 3
  %53 = load ptr, ptr %52, align 8, !tbaa !143
  store i32 %50, ptr %53, align 1, !tbaa !76
  %54 = load ptr, ptr %4, align 8, !tbaa !138
  %55 = getelementptr inbounds nuw %struct.PutBitContext, ptr %54, i32 0, i32 3
  %56 = load ptr, ptr %55, align 8, !tbaa !143
  %57 = getelementptr inbounds nuw i8, ptr %56, i64 4
  store ptr %57, ptr %55, align 8, !tbaa !143
  br label %59

58:                                               ; preds = %27
  call void (ptr, i32, ptr, ...) @av_log(ptr noundef null, i32 noundef 16, ptr noundef @.str.43)
  br label %59

59:                                               ; preds = %58, %48
  %60 = load i32, ptr %5, align 4, !tbaa !32
  %61 = sub nsw i32 32, %60
  %62 = load i32, ptr %8, align 4, !tbaa !32
  %63 = add nsw i32 %62, %61
  store i32 %63, ptr %8, align 4, !tbaa !32
  %64 = load i32, ptr %6, align 4, !tbaa !32
  store i32 %64, ptr %7, align 4, !tbaa !32
  br label %65

65:                                               ; preds = %59, %18
  %66 = load i32, ptr %7, align 4, !tbaa !32
  %67 = load ptr, ptr %4, align 8, !tbaa !138
  %68 = getelementptr inbounds nuw %struct.PutBitContext, ptr %67, i32 0, i32 0
  store i32 %66, ptr %68, align 8, !tbaa !145
  %69 = load i32, ptr %8, align 4, !tbaa !32
  %70 = load ptr, ptr %4, align 8, !tbaa !138
  %71 = getelementptr inbounds nuw %struct.PutBitContext, ptr %70, i32 0, i32 1
  store i32 %69, ptr %71, align 4, !tbaa !144
  call void @llvm.lifetime.end.p0(i64 4, ptr %8) #11
  call void @llvm.lifetime.end.p0(i64 4, ptr %7) #11
  ret void
}

; Function Attrs: inlinehint nounwind uwtable
define internal void @put_bits(ptr noundef %0, i32 noundef %1, i32 noundef %2) #8 {
  %4 = alloca ptr, align 8
  %5 = alloca i32, align 4
  %6 = alloca i32, align 4
  store ptr %0, ptr %4, align 8, !tbaa !138
  store i32 %1, ptr %5, align 4, !tbaa !32
  store i32 %2, ptr %6, align 4, !tbaa !32
  %7 = load ptr, ptr %4, align 8, !tbaa !138
  %8 = load i32, ptr %5, align 4, !tbaa !32
  %9 = load i32, ptr %6, align 4, !tbaa !32
  call void @put_bits_no_assert(ptr noundef %7, i32 noundef %8, i32 noundef %9)
  ret void
}

; Function Attrs: alwaysinline nounwind willreturn memory(none) uwtable
define internal i32 @av_zero_extend_c(i32 noundef %0, i32 noundef %1) #4 {
  %3 = alloca i32, align 4
  %4 = alloca i32, align 4
  store i32 %0, ptr %3, align 4, !tbaa !32
  store i32 %1, ptr %4, align 4, !tbaa !32
  %5 = load i32, ptr %3, align 4, !tbaa !32
  %6 = load i32, ptr %4, align 4, !tbaa !32
  %7 = shl i32 1, %6
  %8 = sub i32 %7, 1
  %9 = and i32 %5, %8
  ret i32 %9
}

; Function Attrs: nounwind uwtable
define internal void @put_alpha_diff(ptr noundef %0, i32 noundef %1, i32 noundef %2, i32 noundef %3) #1 {
  %5 = alloca ptr, align 8
  %6 = alloca i32, align 4
  %7 = alloca i32, align 4
  %8 = alloca i32, align 4
  %9 = alloca i32, align 4
  %10 = alloca i32, align 4
  %11 = alloca i32, align 4
  store ptr %0, ptr %5, align 8, !tbaa !138
  store i32 %1, ptr %6, align 4, !tbaa !32
  store i32 %2, ptr %7, align 4, !tbaa !32
  store i32 %3, ptr %8, align 4, !tbaa !32
  call void @llvm.lifetime.start.p0(i64 4, ptr %9) #11
  %12 = load i32, ptr %8, align 4, !tbaa !32
  %13 = icmp eq i32 %12, 8
  %14 = select i1 %13, i32 4, i32 7
  store i32 %14, ptr %9, align 4, !tbaa !32
  call void @llvm.lifetime.start.p0(i64 4, ptr %10) #11
  %15 = load i32, ptr %9, align 4, !tbaa !32
  %16 = sub nsw i32 %15, 1
  %17 = shl i32 1, %16
  store i32 %17, ptr %10, align 4, !tbaa !32
  call void @llvm.lifetime.start.p0(i64 4, ptr %11) #11
  %18 = load i32, ptr %6, align 4, !tbaa !32
  %19 = load i32, ptr %7, align 4, !tbaa !32
  %20 = sub nsw i32 %18, %19
  store i32 %20, ptr %11, align 4, !tbaa !32
  %21 = load i32, ptr %11, align 4, !tbaa !32
  %22 = load i32, ptr %8, align 4, !tbaa !32
  %23 = call i32 @av_zero_extend_c(i32 noundef %21, i32 noundef %22) #12
  store i32 %23, ptr %11, align 4, !tbaa !32
  %24 = load i32, ptr %11, align 4, !tbaa !32
  %25 = load i32, ptr %8, align 4, !tbaa !32
  %26 = shl i32 1, %25
  %27 = load i32, ptr %10, align 4, !tbaa !32
  %28 = sub nsw i32 %26, %27
  %29 = icmp sge i32 %24, %28
  br i1 %29, label %30, label %35

30:                                               ; preds = %4
  %31 = load i32, ptr %8, align 4, !tbaa !32
  %32 = shl i32 1, %31
  %33 = load i32, ptr %11, align 4, !tbaa !32
  %34 = sub nsw i32 %33, %32
  store i32 %34, ptr %11, align 4, !tbaa !32
  br label %35

35:                                               ; preds = %30, %4
  %36 = load i32, ptr %11, align 4, !tbaa !32
  %37 = load i32, ptr %10, align 4, !tbaa !32
  %38 = sub nsw i32 0, %37
  %39 = icmp slt i32 %36, %38
  br i1 %39, label %47, label %40

40:                                               ; preds = %35
  %41 = load i32, ptr %11, align 4, !tbaa !32
  %42 = load i32, ptr %10, align 4, !tbaa !32
  %43 = icmp sgt i32 %41, %42
  br i1 %43, label %47, label %44

44:                                               ; preds = %40
  %45 = load i32, ptr %11, align 4, !tbaa !32
  %46 = icmp ne i32 %45, 0
  br i1 %46, label %52, label %47

47:                                               ; preds = %44, %40, %35
  %48 = load ptr, ptr %5, align 8, !tbaa !138
  call void @put_bits(ptr noundef %48, i32 noundef 1, i32 noundef 1)
  %49 = load ptr, ptr %5, align 8, !tbaa !138
  %50 = load i32, ptr %8, align 4, !tbaa !32
  %51 = load i32, ptr %11, align 4, !tbaa !32
  call void @put_bits(ptr noundef %49, i32 noundef %50, i32 noundef %51)
  br label %71

52:                                               ; preds = %44
  %53 = load ptr, ptr %5, align 8, !tbaa !138
  call void @put_bits(ptr noundef %53, i32 noundef 1, i32 noundef 0)
  %54 = load ptr, ptr %5, align 8, !tbaa !138
  %55 = load i32, ptr %9, align 4, !tbaa !32
  %56 = sub nsw i32 %55, 1
  %57 = load i32, ptr %11, align 4, !tbaa !32
  %58 = icmp sge i32 %57, 0
  br i1 %58, label %59, label %61

59:                                               ; preds = %52
  %60 = load i32, ptr %11, align 4, !tbaa !32
  br label %64

61:                                               ; preds = %52
  %62 = load i32, ptr %11, align 4, !tbaa !32
  %63 = sub nsw i32 0, %62
  br label %64

64:                                               ; preds = %61, %59
  %65 = phi i32 [ %60, %59 ], [ %63, %61 ]
  %66 = sub nsw i32 %65, 1
  call void @put_bits(ptr noundef %54, i32 noundef %56, i32 noundef %66)
  %67 = load ptr, ptr %5, align 8, !tbaa !138
  %68 = load i32, ptr %11, align 4, !tbaa !32
  %69 = icmp slt i32 %68, 0
  %70 = zext i1 %69 to i32
  call void @put_bits(ptr noundef %67, i32 noundef 1, i32 noundef %70)
  br label %71

71:                                               ; preds = %64, %47
  call void @llvm.lifetime.end.p0(i64 4, ptr %11) #11
  call void @llvm.lifetime.end.p0(i64 4, ptr %10) #11
  call void @llvm.lifetime.end.p0(i64 4, ptr %9) #11
  ret void
}