; Function Attrs: nounwind uwtable
define internal fastcc void @put_alpha_diff(ptr noundef nonnull captures(none) %0, i32 noundef range(i32 0, 65536) %1, i32 noundef range(i32 -2147483648, 2147483647) %2, i32 noundef %3) unnamed_addr #1 {
  %5 = icmp eq i32 %3, 8
  %6 = select i1 %5, i32 3, i32 6
  %7 = shl nuw nsw i32 1, %6
  %8 = sub nsw i32 %1, %2
  %notmask.i = shl nsw i32 -1, %3
  %9 = xor i32 %notmask.i, -1
  %10 = and i32 %8, %9
  %11 = shl nuw i32 1, %3
  %12 = sub nsw i32 %11, %7
  %.not = icmp slt i32 %10, %12
  %13 = select i1 %.not, i32 0, i32 %11
  %spec.select = sub nsw i32 %10, %13
  %14 = sub nsw i32 0, %7
  %15 = icmp slt i32 %spec.select, %14
  br i1 %15, label %19, label %16

16:                                               ; preds = %4
  %17 = icmp sle i32 %spec.select, %7
  %18 = icmp ne i32 %spec.select, 0
  %or.cond = and i1 %17, %18
  br i1 %or.cond, label %71, label %19

19:                                               ; preds = %16, %4
  %20 = load i32, ptr %0, align 8, !tbaa !112
  %21 = getelementptr inbounds nuw i8, ptr %0, i64 4
  %22 = load i32, ptr %21, align 4, !tbaa !111
  %23 = icmp sgt i32 %22, 1
  br i1 %23, label %24, label %27

24:                                               ; preds = %19
  %25 = shl i32 %20, 1
  %26 = or disjoint i32 %25, 1
  br label %put_bits.exit

27:                                               ; preds = %19
  %28 = getelementptr inbounds nuw i8, ptr %0, i64 24
  %29 = load ptr, ptr %28, align 8, !tbaa !109
  %30 = getelementptr inbounds nuw i8, ptr %0, i64 16
  %31 = load ptr, ptr %30, align 8, !tbaa !110
  %32 = ptrtoint ptr %29 to i64
  %33 = ptrtoint ptr %31 to i64
  %34 = sub i64 %32, %33
  %35 = icmp ugt i64 %34, 3
  br i1 %35, label %36, label %44

36:                                               ; preds = %27
  %37 = shl i32 %20, %22
  %38 = sub nsw i32 1, %22
  %39 = lshr i32 1, %38
  %40 = or i32 %39, %37
  %41 = tail call i32 @llvm.bswap.i32(i32 %40)
  store i32 %41, ptr %31, align 1, !tbaa !70
  %42 = load ptr, ptr %30, align 8, !tbaa !110
  %43 = getelementptr inbounds nuw i8, ptr %42, i64 4
  store ptr %43, ptr %30, align 8, !tbaa !110
  br label %put_bits.exit

44:                                               ; preds = %27
  tail call void (ptr, i32, ptr, ...) @av_log(ptr noundef null, i32 noundef 16, ptr noundef nonnull @.str.43) #11
  br label %put_bits.exit

put_bits.exit:                                    ; preds = %36, %44, %24
  %.sink = phi i32 [ -1, %24 ], [ 31, %44 ], [ 31, %36 ]
  %.026.i.i = phi i32 [ %26, %24 ], [ 1, %44 ], [ 1, %36 ]
  %45 = add nsw i32 %22, %.sink
  store i32 %.026.i.i, ptr %0, align 8, !tbaa !112
  store i32 %45, ptr %21, align 4, !tbaa !111
  %46 = icmp slt i32 %3, %45
  br i1 %46, label %47, label %51

47:                                               ; preds = %put_bits.exit
  %48 = shl i32 %.026.i.i, %3
  %49 = or i32 %48, %spec.select
  %50 = sub nsw i32 %45, %3
  br label %put_bits.exit32

51:                                               ; preds = %put_bits.exit
  %52 = getelementptr inbounds nuw i8, ptr %0, i64 24
  %53 = load ptr, ptr %52, align 8, !tbaa !109
  %54 = getelementptr inbounds nuw i8, ptr %0, i64 16
  %55 = load ptr, ptr %54, align 8, !tbaa !110
  %56 = ptrtoint ptr %53 to i64
  %57 = ptrtoint ptr %55 to i64
  %58 = sub i64 %56, %57
  %59 = icmp ugt i64 %58, 3
  br i1 %59, label %60, label %68

60:                                               ; preds = %51
  %61 = shl i32 %.026.i.i, %45
  %62 = sub nsw i32 %3, %45
  %63 = lshr i32 %spec.select, %62
  %64 = or i32 %63, %61
  %65 = tail call i32 @llvm.bswap.i32(i32 %64)
  store i32 %65, ptr %55, align 1, !tbaa !70
  %66 = load ptr, ptr %54, align 8, !tbaa !110
  %67 = getelementptr inbounds nuw i8, ptr %66, i64 4
  store ptr %67, ptr %54, align 8, !tbaa !110
  br label %69

68:                                               ; preds = %51
  tail call void (ptr, i32, ptr, ...) @av_log(ptr noundef null, i32 noundef 16, ptr noundef nonnull @.str.43) #11
  br label %69

69:                                               ; preds = %68, %60
  %reass.sub = sub i32 %45, %3
  %70 = add i32 %reass.sub, 32
  br label %put_bits.exit32

put_bits.exit32:                                  ; preds = %47, %69
  %.026.i.i30 = phi i32 [ %49, %47 ], [ %spec.select, %69 ]
  %.0.i.i31 = phi i32 [ %50, %47 ], [ %70, %69 ]
  store i32 %.026.i.i30, ptr %0, align 8, !tbaa !112
  store i32 %.0.i.i31, ptr %21, align 4, !tbaa !111
  br label %144

71:                                               ; preds = %16
  %72 = load i32, ptr %0, align 8, !tbaa !112
  %73 = getelementptr inbounds nuw i8, ptr %0, i64 4
  %74 = load i32, ptr %73, align 4, !tbaa !111
  %75 = icmp sgt i32 %74, 1
  br i1 %75, label %76, label %78

76:                                               ; preds = %71
  %77 = shl i32 %72, 1
  br label %put_bits.exit36

78:                                               ; preds = %71
  %79 = getelementptr inbounds nuw i8, ptr %0, i64 24
  %80 = load ptr, ptr %79, align 8, !tbaa !109
  %81 = getelementptr inbounds nuw i8, ptr %0, i64 16
  %82 = load ptr, ptr %81, align 8, !tbaa !110
  %83 = ptrtoint ptr %80 to i64
  %84 = ptrtoint ptr %82 to i64
  %85 = sub i64 %83, %84
  %86 = icmp ugt i64 %85, 3
  br i1 %86, label %87, label %92

87:                                               ; preds = %78
  %88 = shl i32 %72, %74
  %89 = tail call i32 @llvm.bswap.i32(i32 %88)
  store i32 %89, ptr %82, align 1, !tbaa !70
  %90 = load ptr, ptr %81, align 8, !tbaa !110
  %91 = getelementptr inbounds nuw i8, ptr %90, i64 4
  store ptr %91, ptr %81, align 8, !tbaa !110
  br label %put_bits.exit36

92:                                               ; preds = %78
  tail call void (ptr, i32, ptr, ...) @av_log(ptr noundef null, i32 noundef 16, ptr noundef nonnull @.str.43) #11
  br label %put_bits.exit36

put_bits.exit36:                                  ; preds = %87, %92, %76
  %.sink47 = phi i32 [ -1, %76 ], [ 31, %92 ], [ 31, %87 ]
  %.026.i.i34 = phi i32 [ %77, %76 ], [ 0, %92 ], [ 0, %87 ]
  %93 = add nsw i32 %74, %.sink47
  store i32 %.026.i.i34, ptr %0, align 8, !tbaa !112
  store i32 %93, ptr %73, align 4, !tbaa !111
  %94 = tail call i32 @llvm.abs.i32(i32 %spec.select, i1 true)
  %95 = add nsw i32 %94, -1
  %96 = icmp slt i32 %6, %93
  br i1 %96, label %97, label %101

97:                                               ; preds = %put_bits.exit36
  %98 = shl i32 %.026.i.i34, %6
  %99 = or i32 %98, %95
  %100 = sub nsw i32 %93, %6
  br label %put_bits.exit40

101:                                              ; preds = %put_bits.exit36
  %102 = getelementptr inbounds nuw i8, ptr %0, i64 24
  %103 = load ptr, ptr %102, align 8, !tbaa !109
  %104 = getelementptr inbounds nuw i8, ptr %0, i64 16
  %105 = load ptr, ptr %104, align 8, !tbaa !110
  %106 = ptrtoint ptr %103 to i64
  %107 = ptrtoint ptr %105 to i64
  %108 = sub i64 %106, %107
  %109 = icmp ugt i64 %108, 3
  br i1 %109, label %110, label %118

110:                                              ; preds = %101
  %111 = shl i32 %.026.i.i34, %93
  %112 = sub nsw i32 %6, %93
  %113 = lshr i32 %95, %112
  %114 = or i32 %113, %111
  %115 = tail call i32 @llvm.bswap.i32(i32 %114)
  store i32 %115, ptr %105, align 1, !tbaa !70
  %116 = load ptr, ptr %104, align 8, !tbaa !110
  %117 = getelementptr inbounds nuw i8, ptr %116, i64 4
  store ptr %117, ptr %104, align 8, !tbaa !110
  br label %119

118:                                              ; preds = %101
  tail call void (ptr, i32, ptr, ...) @av_log(ptr noundef null, i32 noundef 16, ptr noundef nonnull @.str.43) #11
  br label %119

119:                                              ; preds = %118, %110
  %reass.sub.i37 = select i1 %5, i32 29, i32 26
  %120 = add nsw i32 %reass.sub.i37, %93
  br label %put_bits.exit40

put_bits.exit40:                                  ; preds = %97, %119
  %.026.i.i38 = phi i32 [ %99, %97 ], [ %95, %119 ]
  %.0.i.i39 = phi i32 [ %100, %97 ], [ %120, %119 ]
  store i32 %.026.i.i38, ptr %0, align 8, !tbaa !112
  store i32 %.0.i.i39, ptr %73, align 4, !tbaa !111
  %.0.lobit = lshr i32 %spec.select, 31
  %121 = icmp sgt i32 %.0.i.i39, 1
  br i1 %121, label %122, label %125

122:                                              ; preds = %put_bits.exit40
  %123 = shl i32 %.026.i.i38, 1
  %124 = or disjoint i32 %123, %.0.lobit
  br label %put_bits.exit44

125:                                              ; preds = %put_bits.exit40
  %126 = getelementptr inbounds nuw i8, ptr %0, i64 24
  %127 = load ptr, ptr %126, align 8, !tbaa !109
  %128 = getelementptr inbounds nuw i8, ptr %0, i64 16
  %129 = load ptr, ptr %128, align 8, !tbaa !110
  %130 = ptrtoint ptr %127 to i64
  %131 = ptrtoint ptr %129 to i64
  %132 = sub i64 %130, %131
  %133 = icmp ugt i64 %132, 3
  br i1 %133, label %134, label %142

134:                                              ; preds = %125
  %135 = shl i32 %.026.i.i38, %.0.i.i39
  %136 = sub nsw i32 1, %.0.i.i39
  %137 = lshr i32 %.0.lobit, %136
  %138 = or i32 %137, %135
  %139 = tail call i32 @llvm.bswap.i32(i32 %138)
  store i32 %139, ptr %129, align 1, !tbaa !70
  %140 = load ptr, ptr %128, align 8, !tbaa !110
  %141 = getelementptr inbounds nuw i8, ptr %140, i64 4
  store ptr %141, ptr %128, align 8, !tbaa !110
  br label %put_bits.exit44

142:                                              ; preds = %125
  tail call void (ptr, i32, ptr, ...) @av_log(ptr noundef null, i32 noundef 16, ptr noundef nonnull @.str.43) #11
  br label %put_bits.exit44

put_bits.exit44:                                  ; preds = %134, %142, %122
  %.sink48 = phi i32 [ -1, %122 ], [ 31, %142 ], [ 31, %134 ]
  %.026.i.i42 = phi i32 [ %124, %122 ], [ %.0.lobit, %142 ], [ %.0.lobit, %134 ]
  %143 = add nsw i32 %.0.i.i39, %.sink48
  store i32 %.026.i.i42, ptr %0, align 8, !tbaa !112
  store i32 %143, ptr %73, align 4, !tbaa !111
  br label %144

144:                                              ; preds = %put_bits.exit44, %put_bits.exit32
  ret void
}